; Function Attrs: mustprogress uwtable
define void @_ZN2cv6detail8tracking24TrackerContribSamplerCSCC2ERKNS2_6ParamsE(ptr noundef nonnull align 8 dereferenceable(80) %0, ptr noundef nonnull readonly align 4 captures(none) dereferenceable(24) %1) unnamed_addr #3 align 2 personality ptr @__gxx_personality_v0 {
  %3 = getelementptr inbounds nuw i8, ptr %0, i64 8
  %4 = getelementptr inbounds nuw i8, ptr %0, i64 24
  store ptr %4, ptr %3, align 8, !tbaa !151
  %5 = getelementptr inbounds nuw i8, ptr %0, i64 16
  store i64 0, ptr %5, align 8, !tbaa !102
  store i8 0, ptr %4, align 8, !tbaa !41
  store ptr getelementptr inbounds nuw inrange(-16, 32) (i8, ptr @_ZTVN2cv6detail8tracking24TrackerContribSamplerCSCE, i64 16), ptr %0, align 8, !tbaa !3
  %6 = getelementptr inbounds nuw i8, ptr %0, i64 40
  tail call void @llvm.memcpy.p0.p0.i64(ptr noundef nonnull align 8 dereferenceable(24) %6, ptr noundef nonnull align 4 dereferenceable(24) %1, i64 24, i1 false), !tbaa.struct !159
  %7 = getelementptr inbounds nuw i8, ptr %0, i64 72
  store i64 4294967295, ptr %7, align 8, !tbaa !18
  %8 = invoke noundef nonnull align 8 dereferenceable(32) ptr @_ZNSt7__cxx1112basic_stringIcSt11char_traitsIcESaIcEE10_M_replaceEmmPKcm(ptr noundef nonnull align 8 dereferenceable(32) %3, i64 noundef 0, i64 noundef 0, ptr noundef nonnull @.str.10, i64 noundef 3)
          to label %_ZNSt7__cxx1112basic_stringIcSt11char_traitsIcESaIcEEaSEPKc.exit unwind label %13

_ZNSt7__cxx1112basic_stringIcSt11char_traitsIcESaIcEEaSEPKc.exit: ; preds = %2
  %9 = getelementptr inbounds nuw i8, ptr %0, i64 64
  store i32 1, ptr %9, align 8, !tbaa !160
  %10 = invoke noundef nonnull align 8 dereferenceable(8) ptr @_ZN2cv6theRNGEv()
          to label %11 unwind label %13

11:                                               ; preds = %_ZNSt7__cxx1112basic_stringIcSt11char_traitsIcESaIcEEaSEPKc.exit
  %12 = load i64, ptr %10, align 8, !tbaa !36
  store i64 %12, ptr %7, align 8, !tbaa !36
  ret void

13:                                               ; preds = %2, %_ZNSt7__cxx1112basic_stringIcSt11char_traitsIcESaIcEEaSEPKc.exit
  %14 = landingpad { ptr, i32 }
          cleanup
  tail call void @_ZN2cv6detail8tracking30TrackerContribSamplerAlgorithmD2Ev(ptr noundef nonnull align 8 dereferenceable(40) %0) #30
  resume { ptr, i32 } %14
}